target datalayout = "e-m:e-p270:32:32-p271:32:32-p272:64:64-i64:64-i128:128-f80:128-n8:16:32:64-S128"
target triple = "x86_64-unknown-linux-gnu"

%class.aiQuaterniont = type { float, float, float, float }

; Function Attrs: mustprogress nounwind uwtable
define linkonce_odr hidden noundef nonnull align 4 dereferenceable(16) ptr @_ZN13aiQuaterniontIfE9ConjugateEv(ptr noundef nonnull align 4 dereferenceable(16) %this) #0 comdat align 2 {
entry:
  %this.addr = alloca ptr, align 8
  store ptr %this, ptr %this.addr, align 8
  %this1 = load ptr, ptr %this.addr, align 8
  %x = getelementptr inbounds %class.aiQuaterniont, ptr %this1, i32 0, i32 1
  %0 = load float, ptr %x, align 4
  %fneg = fneg float %0
  %x2 = getelementptr inbounds %class.aiQuaterniont, ptr %this1, i32 0, i32 1
  store float %fneg, ptr %x2, align 4
  %y = getelementptr inbounds %class.aiQuaterniont, ptr %this1, i32 0, i32 2
  %1 = load float, ptr %y, align 4
  %fneg3 = fneg float %1
  %y4 = getelementptr inbounds %class.aiQuaterniont, ptr %this1, i32 0, i32 2
  store float %fneg3, ptr %y4, align 4
  %z = getelementptr inbounds %class.aiQuaterniont, ptr %this1, i32 0, i32 3
  %2 = load float, ptr %z, align 4
  %fneg5 = fneg float %2
  %z6 = getelementptr inbounds %class.aiQuaterniont, ptr %this1, i32 0, i32 3
  store float %fneg5, ptr %z6, align 4
  ret ptr %this1
}

; Function Attrs: mustprogress uwtable
define void @aiQuaternionConjugate(ptr noundef %q) #5 {
entry:
  %q.addr = alloca ptr, align 8
  store ptr %q, ptr %q.addr, align 8
  %0 = load ptr, ptr %q.addr, align 8
  %call = call noundef nonnull align 4 dereferenceable(16) ptr @_ZN13aiQuaterniontIfE9ConjugateEv(ptr noundef nonnull align 4 dereferenceable(16) %0)
  ret void
}