; Function Attrs: mustprogress nofree norecurse nosync nounwind willreturn memory(argmem: readwrite) uwtable
define void @aiQuaternionConjugate(ptr nocapture noundef %q) local_unnamed_addr #11 {
entry:
  %x.i = getelementptr inbounds i8, ptr %q, i64 4
  %0 = load <2 x float>, ptr %x.i, align 4
  %1 = fneg <2 x float> %0
  store <2 x float> %1, ptr %x.i, align 4
  %z.i = getelementptr inbounds i8, ptr %q, i64 12
  %2 = load float, ptr %z.i, align 4
  %fneg5.i = fneg float %2
  store float %fneg5.i, ptr %z.i, align 4
  ret void
}